; Function Attrs: nounwind uwtable
define internal ptr @attrgetter_repr(ptr noundef %0) #0 {
  %2 = tail call i32 @Py_ReprEnter(ptr noundef %0) #7
  %.not = icmp eq i32 %2, 0
  br i1 %.not, label %10, label %3

3:                                                ; preds = %1
  %4 = icmp slt i32 %2, 0
  br i1 %4, label %53, label %5

5:                                                ; preds = %3
  %6 = getelementptr i8, ptr %0, i64 8
  %.val27 = load ptr, ptr %6, align 8, !tbaa !19
  %7 = getelementptr inbounds nuw i8, ptr %.val27, i64 24
  %8 = load ptr, ptr %7, align 8, !tbaa !36
  %9 = tail call ptr (ptr, ...) @PyUnicode_FromFormat(ptr noundef nonnull @.str.74, ptr noundef %8) #7
  br label %53

10:                                               ; preds = %1
  %11 = getelementptr inbounds nuw i8, ptr %0, i64 16
  %12 = load i64, ptr %11, align 8, !tbaa !72
  %13 = icmp eq i64 %12, 1
  br i1 %13, label %14, label %42

14:                                               ; preds = %10
  %15 = getelementptr inbounds nuw i8, ptr %0, i64 24
  %16 = load ptr, ptr %15, align 8, !tbaa !44
  %17 = getelementptr inbounds nuw i8, ptr %16, i64 24
  %18 = load ptr, ptr %17, align 8, !tbaa !17
  %19 = getelementptr i8, ptr %18, i64 8
  %.val.i = load ptr, ptr %19, align 8, !tbaa !19
  %.not.i28 = icmp eq ptr %.val.i, @PyTuple_Type
  br i1 %.not.i28, label %20, label %23

20:                                               ; preds = %14
  %21 = tail call ptr @PyUnicode_FromString(ptr noundef nonnull @.str.68) #7
  %22 = icmp eq ptr %21, null
  br i1 %22, label %Py_XDECREF.exit, label %dotjoinattr.exit

23:                                               ; preds = %14
  %24 = load i32, ptr %18, align 8, !tbaa !18
  %25 = icmp slt i32 %24, 0
  br i1 %25, label %dotjoinattr.exit.thread, label %26

26:                                               ; preds = %23
  %27 = add nuw i32 %24, 1
  store i32 %27, ptr %18, align 8, !tbaa !18
  br label %dotjoinattr.exit.thread

dotjoinattr.exit:                                 ; preds = %20
  %28 = tail call ptr @PyUnicode_Join(ptr noundef nonnull %21, ptr noundef nonnull %18) #7
  %.not22 = icmp eq ptr %28, null
  br i1 %.not22, label %Py_DECREF.exit24.thread47, label %dotjoinattr.exit.thread

dotjoinattr.exit.thread:                          ; preds = %26, %23, %dotjoinattr.exit
  %.0.i38 = phi ptr [ %28, %dotjoinattr.exit ], [ %18, %23 ], [ %18, %26 ]
  %.13236 = phi ptr [ %21, %dotjoinattr.exit ], [ null, %23 ], [ null, %26 ]
  %29 = getelementptr i8, ptr %0, i64 8
  %.val26 = load ptr, ptr %29, align 8, !tbaa !19
  %30 = getelementptr inbounds nuw i8, ptr %.val26, i64 24
  %31 = load ptr, ptr %30, align 8, !tbaa !36
  %32 = tail call ptr (ptr, ...) @PyUnicode_FromFormat(ptr noundef nonnull @.str.75, ptr noundef %31, ptr noundef nonnull %.0.i38) #7
  %33 = load i32, ptr %.0.i38, align 8, !tbaa !18
  %.not.i23 = icmp sgt i32 %33, -1
  br i1 %.not.i23, label %34, label %Py_DECREF.exit24

34:                                               ; preds = %dotjoinattr.exit.thread
  %35 = add nsw i32 %33, -1
  store i32 %35, ptr %.0.i38, align 8, !tbaa !18
  %36 = icmp eq i32 %35, 0
  br i1 %36, label %37, label %Py_DECREF.exit24

37:                                               ; preds = %34
  tail call void @_Py_Dealloc(ptr noundef nonnull %.0.i38) #7
  br label %Py_DECREF.exit24

Py_DECREF.exit24:                                 ; preds = %37, %34, %dotjoinattr.exit.thread
  %.not.i29 = icmp eq ptr %.13236, null
  br i1 %.not.i29, label %Py_XDECREF.exit, label %Py_DECREF.exit24.thread47

Py_DECREF.exit24.thread47:                        ; preds = %dotjoinattr.exit, %Py_DECREF.exit24
  %.01752 = phi ptr [ %32, %Py_DECREF.exit24 ], [ null, %dotjoinattr.exit ]
  %.1323751 = phi ptr [ %.13236, %Py_DECREF.exit24 ], [ %21, %dotjoinattr.exit ]
  %38 = load i32, ptr %.1323751, align 8, !tbaa !18
  %.not.i.i = icmp sgt i32 %38, -1
  br i1 %.not.i.i, label %39, label %Py_XDECREF.exit

39:                                               ; preds = %Py_DECREF.exit24.thread47
  %40 = add nsw i32 %38, -1
  store i32 %40, ptr %.1323751, align 8, !tbaa !18
  %41 = icmp eq i32 %40, 0
  br i1 %41, label %Py_XDECREF.exit.sink.split, label %Py_XDECREF.exit

42:                                               ; preds = %10
  %43 = tail call fastcc ptr @attrgetter_args(ptr noundef nonnull %0)
  %.not21 = icmp eq ptr %43, null
  br i1 %.not21, label %Py_XDECREF.exit, label %44

44:                                               ; preds = %42
  %45 = getelementptr i8, ptr %0, i64 8
  %.val = load ptr, ptr %45, align 8, !tbaa !19
  %46 = getelementptr inbounds nuw i8, ptr %.val, i64 24
  %47 = load ptr, ptr %46, align 8, !tbaa !36
  %48 = tail call ptr (ptr, ...) @PyUnicode_FromFormat(ptr noundef nonnull @.str.76, ptr noundef %47, ptr noundef nonnull %43) #7
  %49 = load i32, ptr %43, align 8, !tbaa !18
  %.not.i = icmp sgt i32 %49, -1
  br i1 %.not.i, label %50, label %Py_XDECREF.exit

50:                                               ; preds = %44
  %51 = add nsw i32 %49, -1
  store i32 %51, ptr %43, align 8, !tbaa !18
  %52 = icmp eq i32 %51, 0
  br i1 %52, label %Py_XDECREF.exit.sink.split, label %Py_XDECREF.exit

Py_XDECREF.exit.sink.split:                       ; preds = %50, %39
  %.sink = phi ptr [ %.1323751, %39 ], [ %43, %50 ]
  %.1.ph = phi ptr [ %.01752, %39 ], [ %48, %50 ]
  tail call void @_Py_Dealloc(ptr noundef nonnull %.sink) #7
  br label %Py_XDECREF.exit

Py_XDECREF.exit:                                  ; preds = %Py_XDECREF.exit.sink.split, %20, %50, %44, %39, %Py_DECREF.exit24.thread47, %Py_DECREF.exit24, %42
  %.1 = phi ptr [ null, %42 ], [ %32, %Py_DECREF.exit24 ], [ %.01752, %Py_DECREF.exit24.thread47 ], [ %.01752, %39 ], [ %48, %44 ], [ %48, %50 ], [ null, %20 ], [ %.1.ph, %Py_XDECREF.exit.sink.split ]
  tail call void @Py_ReprLeave(ptr noundef nonnull %0) #7
  br label %53

53:                                               ; preds = %3, %Py_XDECREF.exit, %5
  %.0 = phi ptr [ %9, %5 ], [ %.1, %Py_XDECREF.exit ], [ null, %3 ]
  ret ptr %.0
}